; ModuleID = 'bench/openssl/original/e_rc4.ll'
source_filename = "bench/openssl/original/e_rc4.ll"
target datalayout = "e-m:e-p270:32:32-p271:32:32-p272:64:64-i64:64-i128:128-f80:128-n8:16:32:64-S128"
target triple = "x86_64-pc-linux-gnu"

%struct.CRYPTO_REF_COUNT = type { i32 }

@r4_cipher = internal constant { i32, i32, i32, i32, i64, i32, [4 x i8], ptr, ptr, ptr, i32, [4 x i8], ptr, ptr, ptr, ptr, i32, [4 x i8], ptr, ptr, ptr, %struct.CRYPTO_REF_COUNT, [4 x i8], ptr, ptr, ptr, ptr, ptr, ptr, ptr, ptr, ptr, ptr, ptr, ptr, ptr, ptr, ptr, ptr, ptr, ptr, ptr, ptr } { i32 5, i32 1, i32 16, i32 0, i64 8, i32 1, [4 x i8] zeroinitializer, ptr @rc4_init_key, ptr @rc4_cipher, ptr null, i32 1032, [4 x i8] zeroinitializer, ptr null, ptr null, ptr null, ptr null, i32 0, [4 x i8] zeroinitializer, ptr null, ptr null, ptr null, %struct.CRYPTO_REF_COUNT zeroinitializer, [4 x i8] zeroinitializer, ptr null, ptr null, ptr null, ptr null, ptr null, ptr null, ptr null, ptr null, ptr null, ptr null, ptr null, ptr null, ptr null, ptr null, ptr null, ptr null, ptr null, ptr null, ptr null, ptr null }, align 8
@r4_40_cipher = internal constant { i32, i32, i32, i32, i64, i32, [4 x i8], ptr, ptr, ptr, i32, [4 x i8], ptr, ptr, ptr, ptr, i32, [4 x i8], ptr, ptr, ptr, %struct.CRYPTO_REF_COUNT, [4 x i8], ptr, ptr, ptr, ptr, ptr, ptr, ptr, ptr, ptr, ptr, ptr, ptr, ptr, ptr, ptr, ptr, ptr, ptr, ptr, ptr } { i32 97, i32 1, i32 5, i32 0, i64 8, i32 1, [4 x i8] zeroinitializer, ptr @rc4_init_key, ptr @rc4_cipher, ptr null, i32 1032, [4 x i8] zeroinitializer, ptr null, ptr null, ptr null, ptr null, i32 0, [4 x i8] zeroinitializer, ptr null, ptr null, ptr null, %struct.CRYPTO_REF_COUNT zeroinitializer, [4 x i8] zeroinitializer, ptr null, ptr null, ptr null, ptr null, ptr null, ptr null, ptr null, ptr null, ptr null, ptr null, ptr null, ptr null, ptr null, ptr null, ptr null, ptr null, ptr null, ptr null, ptr null, ptr null }, align 8

; Function Attrs: mustprogress nofree norecurse nosync nounwind willreturn memory(none) uwtable
define noundef nonnull ptr @EVP_rc4() local_unnamed_addr #0 {
  ret ptr @r4_cipher
}

; Function Attrs: mustprogress nofree norecurse nosync nounwind willreturn memory(none) uwtable
define noundef nonnull ptr @EVP_rc4_40() local_unnamed_addr #0 {
  ret ptr @r4_40_cipher
}

; Function Attrs: nounwind uwtable
define internal range(i32 0, 2) i32 @rc4_init_key(ptr noundef %0, ptr noundef %1, ptr readnone captures(none) %2, i32 %3) #1 {
  %5 = tail call i32 @EVP_CIPHER_CTX_get_key_length(ptr noundef %0) #3
  %6 = icmp slt i32 %5, 1
  br i1 %6, label %9, label %7

7:                                                ; preds = %4
  %8 = tail call ptr @EVP_CIPHER_CTX_get_cipher_data(ptr noundef %0) #3
  tail call void @RC4_set_key(ptr noundef %8, i32 noundef %5, ptr noundef %1) #3
  br label %9

9:                                                ; preds = %4, %7
  %.0 = phi i32 [ 1, %7 ], [ 0, %4 ]
  ret i32 %.0
}

; Function Attrs: nounwind uwtable
define internal noundef i32 @rc4_cipher(ptr noundef %0, ptr noundef %1, ptr noundef %2, i64 noundef %3) #1 {
  %5 = tail call ptr @EVP_CIPHER_CTX_get_cipher_data(ptr noundef %0) #3
  tail call void @RC4(ptr noundef %5, i64 noundef %3, ptr noundef %2, ptr noundef %1) #3
  ret i32 1
}

declare i32 @EVP_CIPHER_CTX_get_key_length(ptr noundef) local_unnamed_addr #2

declare void @RC4_set_key(ptr noundef, i32 noundef, ptr noundef) local_unnamed_addr #2

declare ptr @EVP_CIPHER_CTX_get_cipher_data(ptr noundef) local_unnamed_addr #2

declare void @RC4(ptr noundef, i64 noundef, ptr noundef, ptr noundef) local_unnamed_addr #2


!llvm.module.flags = !{!0, !1, !2}

!0 = !{i32 1, !"wchar_size", i32 4}
!1 = !{i32 8, !"PIC Level", i32 2}
!2 = !{i32 7, !"uwtable", i32 2}
